target datalayout = "e-m:e-p270:32:32-p271:32:32-p272:64:64-i64:64-i128:128-f80:128-n8:16:32:64-S128"
target triple = "x86_64-pc-linux-gnu"

%struct._zval_struct = type { %union._zend_value, %union.anon, %union.anon.2 }
%union._zend_value = type { i64 }
%union.anon = type { i32 }
%union.anon.2 = type { i32 }
%struct._zend_refcounted_h = type { i32, %union.anon.3 }
%union.anon.3 = type { i32 }
%struct._zend_object = type { %struct._zend_refcounted_h, i32, i32, ptr, ptr, ptr, [1 x %struct._zval_struct] }
%struct._php_sqlite3_stmt_object = type { ptr, ptr, i8, ptr, %struct._zend_object }

; Function Attrs: nounwind uwtable
define internal void @php_sqlite3_free_list_dtor(ptr noundef %0) #0 {
  %2 = alloca ptr, align 8
  %3 = alloca ptr, align 8
  store ptr %0, ptr %2, align 8, !tbaa !70
  call void @llvm.lifetime.start.p0(i64 8, ptr %3) #15
  %4 = load ptr, ptr %2, align 8, !tbaa !70
  %5 = load ptr, ptr %4, align 8, !tbaa !70
  store ptr %5, ptr %3, align 8, !tbaa !83
  %6 = load ptr, ptr %3, align 8, !tbaa !83
  %7 = icmp ne ptr %6, null
  br i1 %7, label %8, label %20

8:                                                ; preds = %1
  %9 = load ptr, ptr %3, align 8, !tbaa !83
  %10 = getelementptr inbounds nuw %struct._php_sqlite3_stmt_object, ptr %9, i32 0, i32 2
  %11 = load i8, ptr %10, align 8, !tbaa !88, !range !59, !noundef !60
  %12 = trunc i8 %11 to i1
  br i1 %12, label %13, label %20

13:                                               ; preds = %8
  %14 = load ptr, ptr %3, align 8, !tbaa !83
  %15 = getelementptr inbounds nuw %struct._php_sqlite3_stmt_object, ptr %14, i32 0, i32 0
  %16 = load ptr, ptr %15, align 8, !tbaa !102
  %17 = call i32 @sqlite3_finalize(ptr noundef %16)
  %18 = load ptr, ptr %3, align 8, !tbaa !83
  %19 = getelementptr inbounds nuw %struct._php_sqlite3_stmt_object, ptr %18, i32 0, i32 2
  store i8 0, ptr %19, align 8, !tbaa !88
  br label %20

20:                                               ; preds = %13, %8, %1
  call void @llvm.lifetime.end.p0(i64 8, ptr %3) #15
  ret void
}