; Function Attrs: nounwind uwtable
define internal void @php_sqlite3_free_list_dtor(ptr noundef readonly captures(none) %0) #0 {
  %2 = load ptr, ptr %0, align 8, !tbaa !150
  %.not = icmp eq ptr %2, null
  br i1 %.not, label %10, label %3

3:                                                ; preds = %1
  %4 = getelementptr inbounds nuw i8, ptr %2, i64 16
  %5 = load i8, ptr %4, align 8, !tbaa !88, !range !55, !noundef !56
  %6 = trunc nuw i8 %5 to i1
  br i1 %6, label %7, label %10

7:                                                ; preds = %3
  %8 = load ptr, ptr %2, align 8, !tbaa !100
  %9 = tail call i32 @sqlite3_finalize(ptr noundef %8) #17
  store i8 0, ptr %4, align 8, !tbaa !88
  br label %10

10:                                               ; preds = %7, %3, %1
  ret void
}